; Function Attrs: mustprogress uwtable
define void @_ZN6icu_7712StringSearch11setCollatorEPNS_17RuleBasedCollatorER10UErrorCode(ptr noundef nonnull readonly align 8 captures(none) dereferenceable(160) %0, ptr noundef %1, ptr noundef nonnull align 4 dereferenceable(4) %2) local_unnamed_addr #1 align 2 {
  %4 = load i32, ptr %2, align 4, !tbaa !6
  %5 = icmp sgt i32 %4, 0
  br i1 %5, label %9, label %6

6:                                                ; preds = %3
  %7 = getelementptr inbounds nuw i8, ptr %0, i64 152
  %8 = load ptr, ptr %7, align 8, !tbaa !9
  tail call void @usearch_setCollator_77(ptr noundef %8, ptr noundef %1, ptr noundef nonnull %2)
  br label %9

9:                                                ; preds = %6, %3
  ret void
}